target datalayout = "e-m:e-p270:32:32-p271:32:32-p272:64:64-i64:64-i128:128-f80:128-n8:16:32:64-S128"
target triple = "x86_64-pc-linux-gnu"

%"class.marisa::grimoire::trie::LoudsTrie" = type { %"class.marisa::grimoire::vector::BitVector", %"class.marisa::grimoire::vector::BitVector", %"class.marisa::grimoire::vector::BitVector", %"class.marisa::grimoire::vector::Vector.4", %"class.marisa::grimoire::vector::FlatVector", %"class.marisa::grimoire::trie::Tail", %"class.marisa::scoped_ptr", %"class.marisa::grimoire::vector::Vector.8", i64, i64, %"class.marisa::grimoire::trie::Config", %"class.marisa::grimoire::io::Mapper" }
%"class.marisa::grimoire::vector::BitVector" = type { %"class.marisa::grimoire::vector::Vector", i64, i64, %"class.marisa::grimoire::vector::Vector.0", %"class.marisa::grimoire::vector::Vector.2", %"class.marisa::grimoire::vector::Vector.2" }
%"class.marisa::grimoire::vector::Vector" = type <{ %"class.marisa::scoped_array", ptr, ptr, i64, i64, i8, [7 x i8] }>
%"class.marisa::scoped_array" = type { ptr }
%"class.marisa::grimoire::vector::Vector.0" = type <{ %"class.marisa::scoped_array", ptr, ptr, i64, i64, i8, [7 x i8] }>
%"class.marisa::grimoire::vector::Vector.2" = type <{ %"class.marisa::scoped_array", ptr, ptr, i64, i64, i8, [7 x i8] }>
%"class.marisa::grimoire::vector::Vector.4" = type <{ %"class.marisa::scoped_array", ptr, ptr, i64, i64, i8, [7 x i8] }>
%"class.marisa::grimoire::vector::FlatVector" = type { %"class.marisa::grimoire::vector::Vector", i64, i32, i64 }
%"class.marisa::grimoire::trie::Tail" = type { %"class.marisa::grimoire::vector::Vector.6", %"class.marisa::grimoire::vector::BitVector" }
%"class.marisa::grimoire::vector::Vector.6" = type <{ %"class.marisa::scoped_array", ptr, ptr, i64, i64, i8, [7 x i8] }>
%"class.marisa::scoped_ptr" = type { ptr }
%"class.marisa::grimoire::vector::Vector.8" = type <{ %"class.marisa::scoped_array", ptr, ptr, i64, i64, i8, [7 x i8] }>
%"class.marisa::grimoire::trie::Config" = type <{ i64, i32, i32, i32, [4 x i8] }>
%"class.marisa::grimoire::io::Mapper" = type <{ ptr, ptr, i64, i64, i32, [4 x i8] }>
%"class.marisa::grimoire::trie::Cache" = type { i32, i32, %"union.marisa::grimoire::trie::Cache::Union" }
%"union.marisa::grimoire::trie::Cache::Union" = type { i32 }

; Function Attrs: mustprogress nounwind uwtable
define linkonce_odr void @_ZN6marisa8grimoire4trie5Cache10set_weightEf(ptr noundef nonnull align 4 dereferenceable(12) %0, float noundef %1) #5 comdat align 2 {
  %3 = alloca ptr, align 8
  %4 = alloca float, align 4
  store ptr %0, ptr %3, align 8
  store float %1, ptr %4, align 4
  %5 = load ptr, ptr %3, align 8
  %6 = load float, ptr %4, align 4
  %7 = getelementptr inbounds %"class.marisa::grimoire::trie::Cache", ptr %5, i32 0, i32 2
  store float %6, ptr %7, align 4
  ret void
}

; Function Attrs: mustprogress nounwind uwtable
define linkonce_odr void @_ZN6marisa8grimoire4trie5Cache9set_childEm(ptr noundef nonnull align 4 dereferenceable(12) %0, i64 noundef %1) #5 comdat align 2 {
  %3 = alloca ptr, align 8
  %4 = alloca i64, align 8
  store ptr %0, ptr %3, align 8
  store i64 %1, ptr %4, align 8
  %5 = load ptr, ptr %3, align 8
  %6 = load i64, ptr %4, align 8
  %7 = trunc i64 %6 to i32
  %8 = getelementptr inbounds %"class.marisa::grimoire::trie::Cache", ptr %5, i32 0, i32 1
  store i32 %7, ptr %8, align 4
  ret void
}

; Function Attrs: mustprogress nounwind uwtable
define linkonce_odr void @_ZN6marisa8grimoire4trie5Cache10set_parentEm(ptr noundef nonnull align 4 dereferenceable(12) %0, i64 noundef %1) #5 comdat align 2 {
  %3 = alloca ptr, align 8
  %4 = alloca i64, align 8
  store ptr %0, ptr %3, align 8
  store i64 %1, ptr %4, align 8
  %5 = load ptr, ptr %3, align 8
  %6 = load i64, ptr %4, align 8
  %7 = trunc i64 %6 to i32
  %8 = getelementptr inbounds %"class.marisa::grimoire::trie::Cache", ptr %5, i32 0, i32 0
  store i32 %7, ptr %8, align 4
  ret void
}

; Function Attrs: mustprogress nounwind uwtable
define linkonce_odr noundef float @_ZNK6marisa8grimoire4trie5Cache6weightEv(ptr noundef nonnull align 4 dereferenceable(12) %0) #5 comdat align 2 {
  %2 = alloca ptr, align 8
  store ptr %0, ptr %2, align 8
  %3 = load ptr, ptr %2, align 8
  %4 = getelementptr inbounds %"class.marisa::grimoire::trie::Cache", ptr %3, i32 0, i32 2
  %5 = load float, ptr %4, align 4
  ret float %5
}

; Function Attrs: mustprogress nounwind uwtable
define linkonce_odr noundef nonnull align 4 dereferenceable(12) ptr @_ZN6marisa8grimoire6vector6VectorINS0_4trie5CacheEEixEm(ptr noundef nonnull align 8 dereferenceable(41) %0, i64 noundef %1) #5 comdat align 2 {
  %3 = alloca ptr, align 8
  %4 = alloca i64, align 8
  store ptr %0, ptr %3, align 8
  store i64 %1, ptr %4, align 8
  %5 = load ptr, ptr %3, align 8
  %6 = getelementptr inbounds %"class.marisa::grimoire::vector::Vector.8", ptr %5, i32 0, i32 1
  %7 = load ptr, ptr %6, align 8
  %8 = load i64, ptr %4, align 8
  %9 = getelementptr inbounds %"class.marisa::grimoire::trie::Cache", ptr %7, i64 %8
  ret ptr %9
}

; Function Attrs: mustprogress nounwind uwtable
define linkonce_odr noundef i64 @_ZNK6marisa8grimoire4trie9LoudsTrie12get_cache_idEm(ptr noundef nonnull align 8 dereferenceable(1136) %0, i64 noundef %1) #5 comdat align 2 {
  %3 = alloca ptr, align 8
  %4 = alloca i64, align 8
  store ptr %0, ptr %3, align 8
  store i64 %1, ptr %4, align 8
  %5 = load ptr, ptr %3, align 8
  %6 = load i64, ptr %4, align 8
  %7 = getelementptr inbounds %"class.marisa::grimoire::trie::LoudsTrie", ptr %5, i32 0, i32 8
  %8 = load i64, ptr %7, align 8
  %9 = and i64 %6, %8
  ret i64 %9
}

; Function Attrs: mustprogress uwtable
define void @_ZN6marisa8grimoire4trie9LoudsTrie5cacheINS1_10ReverseKeyEEEvmmfc(ptr noundef nonnull align 8 dereferenceable(1136) %0, i64 noundef %1, i64 noundef %2, float noundef %3, i8 noundef signext %4) #4 align 2 {
  %6 = alloca ptr, align 8
  %7 = alloca i64, align 8
  %8 = alloca i64, align 8
  %9 = alloca float, align 4
  %10 = alloca i8, align 1
  %11 = alloca i64, align 8
  store ptr %0, ptr %6, align 8
  store i64 %1, ptr %7, align 8
  store i64 %2, ptr %8, align 8
  store float %3, ptr %9, align 4
  store i8 %4, ptr %10, align 1
  %12 = load ptr, ptr %6, align 8
  %13 = load i64, ptr %8, align 8
  %14 = call noundef i64 @_ZNK6marisa8grimoire4trie9LoudsTrie12get_cache_idEm(ptr noundef nonnull align 8 dereferenceable(1136) %12, i64 noundef %13)
  store i64 %14, ptr %11, align 8
  %15 = load float, ptr %9, align 4
  %16 = getelementptr inbounds %"class.marisa::grimoire::trie::LoudsTrie", ptr %12, i32 0, i32 7
  %17 = load i64, ptr %11, align 8
  %18 = call noundef nonnull align 4 dereferenceable(12) ptr @_ZN6marisa8grimoire6vector6VectorINS0_4trie5CacheEEixEm(ptr noundef nonnull align 8 dereferenceable(41) %16, i64 noundef %17)
  %19 = call noundef float @_ZNK6marisa8grimoire4trie5Cache6weightEv(ptr noundef nonnull align 4 dereferenceable(12) %18)
  %20 = fcmp ogt float %15, %19
  br i1 %20, label %21, label %34

21:                                               ; preds = %5
  %22 = getelementptr inbounds %"class.marisa::grimoire::trie::LoudsTrie", ptr %12, i32 0, i32 7
  %23 = load i64, ptr %11, align 8
  %24 = call noundef nonnull align 4 dereferenceable(12) ptr @_ZN6marisa8grimoire6vector6VectorINS0_4trie5CacheEEixEm(ptr noundef nonnull align 8 dereferenceable(41) %22, i64 noundef %23)
  %25 = load i64, ptr %7, align 8
  call void @_ZN6marisa8grimoire4trie5Cache10set_parentEm(ptr noundef nonnull align 4 dereferenceable(12) %24, i64 noundef %25)
  %26 = getelementptr inbounds %"class.marisa::grimoire::trie::LoudsTrie", ptr %12, i32 0, i32 7
  %27 = load i64, ptr %11, align 8
  %28 = call noundef nonnull align 4 dereferenceable(12) ptr @_ZN6marisa8grimoire6vector6VectorINS0_4trie5CacheEEixEm(ptr noundef nonnull align 8 dereferenceable(41) %26, i64 noundef %27)
  %29 = load i64, ptr %8, align 8
  call void @_ZN6marisa8grimoire4trie5Cache9set_childEm(ptr noundef nonnull align 4 dereferenceable(12) %28, i64 noundef %29)
  %30 = getelementptr inbounds %"class.marisa::grimoire::trie::LoudsTrie", ptr %12, i32 0, i32 7
  %31 = load i64, ptr %11, align 8
  %32 = call noundef nonnull align 4 dereferenceable(12) ptr @_ZN6marisa8grimoire6vector6VectorINS0_4trie5CacheEEixEm(ptr noundef nonnull align 8 dereferenceable(41) %30, i64 noundef %31)
  %33 = load float, ptr %9, align 4
  call void @_ZN6marisa8grimoire4trie5Cache10set_weightEf(ptr noundef nonnull align 4 dereferenceable(12) %32, float noundef %33)
  br label %34

34:                                               ; preds = %21, %5
  ret void
}