; Function Attrs: mustprogress nofree norecurse nosync nounwind willreturn memory(readwrite, inaccessiblemem: none) uwtable
define void @_ZN6marisa8grimoire4trie9LoudsTrie5cacheINS1_10ReverseKeyEEEvmmfc(ptr nocapture noundef nonnull readonly align 8 dereferenceable(1136) %0, i64 noundef %1, i64 noundef %2, float noundef %3, i8 noundef signext %4) local_unnamed_addr #8 align 2 {
  %6 = getelementptr inbounds i8, ptr %0, i64 1056
  %7 = load i64, ptr %6, align 8
  %8 = and i64 %7, %2
  %9 = getelementptr inbounds i8, ptr %0, i64 1016
  %10 = load ptr, ptr %9, align 8
  %11 = getelementptr inbounds %"class.marisa::grimoire::trie::Cache", ptr %10, i64 %8
  %12 = getelementptr inbounds i8, ptr %11, i64 8
  %13 = load float, ptr %12, align 4
  %14 = fcmp olt float %13, %3
  br i1 %14, label %15, label %22

15:                                               ; preds = %5
  %16 = trunc i64 %1 to i32
  store i32 %16, ptr %11, align 4
  %17 = load ptr, ptr %9, align 8
  %18 = trunc i64 %2 to i32
  %19 = getelementptr inbounds %"class.marisa::grimoire::trie::Cache", ptr %17, i64 %8, i32 1
  store i32 %18, ptr %19, align 4
  %20 = load ptr, ptr %9, align 8
  %21 = getelementptr inbounds %"class.marisa::grimoire::trie::Cache", ptr %20, i64 %8, i32 2
  store float %3, ptr %21, align 4
  br label %22

22:                                               ; preds = %15, %5
  ret void
}